; Function Attrs: mustprogress uwtable
define void @_Z11print_startP8_IO_FILEPK9t_commrecP23gmx_walltime_accountingPKc(ptr noundef %0, ptr noundef readonly captures(none) %1, ptr noundef %2, ptr noundef %3) local_unnamed_addr #0 personality ptr @__gxx_personality_v0 {
  %5 = alloca i64, align 8
  %6 = alloca %"class.std::__cxx11::basic_string", align 8
  %7 = alloca [4096 x i8], align 16
  call void @llvm.lifetime.start.p0(i64 4096, ptr nonnull %7) #9
  %8 = call i32 (ptr, ptr, ...) @sprintf(ptr noundef nonnull dereferenceable(1) %7, ptr noundef nonnull dereferenceable(1) @.str.9, ptr noundef %3) #9
  %9 = getelementptr inbounds nuw i8, ptr %1, i64 16
  %10 = load i32, ptr %9, align 8, !tbaa !112
  %11 = tail call noundef double @_Z40walltime_accounting_get_start_time_stampP23gmx_walltime_accounting(ptr noundef %2)
  %.not.i = icmp eq ptr %0, null
  br i1 %.not.i, label %_Z19print_date_and_timeP8_IO_FILEiPKcd.exit, label %12

12:                                               ; preds = %4
  call void @llvm.lifetime.start.p0(i64 8, ptr nonnull %5) #9
  %13 = fptosi double %11 to i64
  store i64 %13, ptr %5, align 8, !tbaa !110
  call void @llvm.lifetime.start.p0(i64 32, ptr nonnull %6) #9
  call void @_Z11gmx_ctime_rB5cxx11PKl(ptr dead_on_unwind nonnull writable sret(%"class.std::__cxx11::basic_string") align 8 %6, ptr noundef nonnull %5)
  %14 = load ptr, ptr %6, align 8, !tbaa !4
  %15 = call i32 (ptr, ptr, ...) @fprintf(ptr noundef nonnull %0, ptr noundef nonnull @.str.8, ptr noundef nonnull %7, i32 noundef %10, ptr noundef %14) #9
  %16 = load ptr, ptr %6, align 8, !tbaa !4
  %17 = getelementptr inbounds nuw i8, ptr %6, i64 16
  %18 = icmp eq ptr %16, %17
  br i1 %18, label %_ZNKSt7__cxx1112basic_stringIcSt11char_traitsIcESaIcEE11_M_is_localEv.exit.thread.i.i.i, label %_ZNKSt7__cxx1112basic_stringIcSt11char_traitsIcESaIcEE11_M_is_localEv.exit.i.i.i

_ZNKSt7__cxx1112basic_stringIcSt11char_traitsIcESaIcEE11_M_is_localEv.exit.thread.i.i.i: ; preds = %12
  %19 = getelementptr inbounds nuw i8, ptr %6, i64 8
  %20 = load i64, ptr %19, align 8, !tbaa !12
  %21 = icmp ult i64 %20, 16
  call void @llvm.assume(i1 %21)
  br label %_ZNSt7__cxx1112basic_stringIcSt11char_traitsIcESaIcEED2Ev.exit.i

_ZNKSt7__cxx1112basic_stringIcSt11char_traitsIcESaIcEE11_M_is_localEv.exit.i.i.i: ; preds = %12
  %22 = load i64, ptr %17, align 8, !tbaa !13
  %23 = add i64 %22, 1
  call void @_ZdlPvm(ptr noundef %16, i64 noundef %23) #10
  br label %_ZNSt7__cxx1112basic_stringIcSt11char_traitsIcESaIcEED2Ev.exit.i

_ZNSt7__cxx1112basic_stringIcSt11char_traitsIcESaIcEED2Ev.exit.i: ; preds = %_ZNKSt7__cxx1112basic_stringIcSt11char_traitsIcESaIcEE11_M_is_localEv.exit.i.i.i, %_ZNKSt7__cxx1112basic_stringIcSt11char_traitsIcESaIcEE11_M_is_localEv.exit.thread.i.i.i
  call void @llvm.lifetime.end.p0(i64 32, ptr nonnull %6) #9
  call void @llvm.lifetime.end.p0(i64 8, ptr nonnull %5) #9
  br label %_Z19print_date_and_timeP8_IO_FILEiPKcd.exit

_Z19print_date_and_timeP8_IO_FILEiPKcd.exit:      ; preds = %4, %_ZNSt7__cxx1112basic_stringIcSt11char_traitsIcESaIcEED2Ev.exit.i
  call void @llvm.lifetime.end.p0(i64 4096, ptr nonnull %7) #9
  ret void
}